; Function Attrs: mustprogress nofree norecurse nosync nounwind willreturn memory(write, argmem: readwrite, inaccessiblemem: none) uwtable
define void @_ZN2cv8Subdiv2D11deletePointEi(ptr noundef nonnull align 8 captures(none) dereferenceable(80) %0, i32 noundef %1) local_unnamed_addr #12 align 2 {
  %3 = getelementptr inbounds nuw i8, ptr %0, i64 52
  %4 = load i32, ptr %3, align 4, !tbaa !48
  %5 = sext i32 %1 to i64
  %6 = load ptr, ptr %0, align 8, !tbaa !11
  %7 = getelementptr inbounds nuw %"struct.cv::Subdiv2D::Vertex", ptr %6, i64 %5
  store i32 %4, ptr %7, align 4, !tbaa !14
  %8 = getelementptr inbounds nuw i8, ptr %7, i64 4
  store i32 -1, ptr %8, align 4, !tbaa !54
  store i32 %1, ptr %3, align 4, !tbaa !48
  ret void
}